; Function Attrs: nounwind uwtable
define internal fastcc void @fmt_tag_signature(ptr noundef nonnull %0, ptr noundef nonnull readonly captures(none) %1, ptr noundef %2, i64 noundef %3) unnamed_addr #0 {
  %5 = tail call ptr @strstr(ptr noundef nonnull dereferenceable(1) %2, ptr noundef nonnull dereferenceable(1) @.str.36) #12
  %.not = icmp eq ptr %5, null
  br i1 %.not, label %12, label %6

6:                                                ; preds = %4
  %7 = getelementptr inbounds nuw i8, ptr %5, i64 2
  %8 = getelementptr inbounds nuw i8, ptr %2, i64 %3
  %9 = ptrtoint ptr %8 to i64
  %10 = ptrtoint ptr %7 to i64
  %11 = sub i64 %9, %10
  tail call void @strbuf_add(ptr noundef nonnull %0, ptr noundef nonnull %7, i64 noundef %11) #13
  br label %12

12:                                               ; preds = %6, %4
  %13 = getelementptr inbounds nuw i8, ptr %0, i64 8
  %14 = load i64, ptr %13, align 8, !tbaa !20
  %.not.i.i = icmp eq i64 %14, 0
  br i1 %.not.i.i, label %strbuf_complete_line.exit, label %15

15:                                               ; preds = %12
  %16 = getelementptr inbounds nuw i8, ptr %0, i64 16
  %17 = load ptr, ptr %16, align 8, !tbaa !23
  %18 = getelementptr i8, ptr %17, i64 %14
  %19 = getelementptr i8, ptr %18, i64 -1
  %20 = load i8, ptr %19, align 1, !tbaa !12
  %.not6.i.i = icmp eq i8 %20, 10
  br i1 %.not6.i.i, label %strbuf_complete_line.exit, label %21

21:                                               ; preds = %15
  %22 = load i64, ptr %0, align 8, !tbaa !73
  %.not.i.i.i.i = icmp eq i64 %22, 0
  %.neg.i.i.i = add i64 %14, 1
  %.not.i.i.i = icmp eq i64 %22, %.neg.i.i.i
  %or.cond.i.i = or i1 %.not.i.i.i.i, %.not.i.i.i
  br i1 %or.cond.i.i, label %strbuf_avail.exit.thread.i.i.i, label %strbuf_addch.exit.i.i

strbuf_avail.exit.thread.i.i.i:                   ; preds = %21
  tail call void @strbuf_grow(ptr noundef nonnull %0, i64 noundef 1) #13
  %.pre.i.i.i = load i64, ptr %13, align 8, !tbaa !20
  %.pre7.i.i.i = add i64 %.pre.i.i.i, 1
  %.pre.i.i = load ptr, ptr %16, align 8, !tbaa !23
  br label %strbuf_addch.exit.i.i

strbuf_addch.exit.i.i:                            ; preds = %strbuf_avail.exit.thread.i.i.i, %21
  %23 = phi ptr [ %.pre.i.i, %strbuf_avail.exit.thread.i.i.i ], [ %17, %21 ]
  %.pre-phi.i.i.i = phi i64 [ %.pre7.i.i.i, %strbuf_avail.exit.thread.i.i.i ], [ %.neg.i.i.i, %21 ]
  %24 = phi i64 [ %.pre.i.i.i, %strbuf_avail.exit.thread.i.i.i ], [ %14, %21 ]
  store i64 %.pre-phi.i.i.i, ptr %13, align 8, !tbaa !20
  %25 = getelementptr inbounds nuw i8, ptr %23, i64 %24
  store i8 10, ptr %25, align 1, !tbaa !12
  %26 = load ptr, ptr %16, align 8, !tbaa !23
  %27 = load i64, ptr %13, align 8, !tbaa !20
  %28 = getelementptr inbounds nuw i8, ptr %26, i64 %27
  store i8 0, ptr %28, align 1, !tbaa !12
  br label %strbuf_complete_line.exit

strbuf_complete_line.exit:                        ; preds = %12, %15, %strbuf_addch.exit.i.i
  %29 = getelementptr inbounds nuw i8, ptr %1, i64 8
  %30 = load i64, ptr %29, align 8, !tbaa !20
  %.not13 = icmp eq i64 %30, 0
  br i1 %.not13, label %45, label %31

31:                                               ; preds = %strbuf_complete_line.exit
  %32 = load i64, ptr %0, align 8, !tbaa !73
  %.not.i.i14 = icmp eq i64 %32, 0
  br i1 %.not.i.i14, label %strbuf_avail.exit.thread.i, label %strbuf_avail.exit.i

strbuf_avail.exit.i:                              ; preds = %31
  %33 = load i64, ptr %13, align 8, !tbaa !20
  %.neg.i = add i64 %33, 1
  %.not.i = icmp eq i64 %32, %.neg.i
  br i1 %.not.i, label %strbuf_avail.exit.thread.i, label %strbuf_addch.exit

strbuf_avail.exit.thread.i:                       ; preds = %strbuf_avail.exit.i, %31
  tail call void @strbuf_grow(ptr noundef nonnull %0, i64 noundef 1) #13
  %.pre.i = load i64, ptr %13, align 8, !tbaa !20
  %.pre7.i = add i64 %.pre.i, 1
  br label %strbuf_addch.exit

strbuf_addch.exit:                                ; preds = %strbuf_avail.exit.i, %strbuf_avail.exit.thread.i
  %.pre-phi.i = phi i64 [ %.pre7.i, %strbuf_avail.exit.thread.i ], [ %.neg.i, %strbuf_avail.exit.i ]
  %34 = phi i64 [ %.pre.i, %strbuf_avail.exit.thread.i ], [ %33, %strbuf_avail.exit.i ]
  %35 = getelementptr inbounds nuw i8, ptr %0, i64 16
  %36 = load ptr, ptr %35, align 8, !tbaa !23
  store i64 %.pre-phi.i, ptr %13, align 8, !tbaa !20
  %37 = getelementptr inbounds nuw i8, ptr %36, i64 %34
  store i8 10, ptr %37, align 1, !tbaa !12
  %38 = load ptr, ptr %35, align 8, !tbaa !23
  %39 = load i64, ptr %13, align 8, !tbaa !20
  %40 = getelementptr inbounds nuw i8, ptr %38, i64 %39
  store i8 0, ptr %40, align 1, !tbaa !12
  %41 = getelementptr inbounds nuw i8, ptr %1, i64 16
  %42 = load ptr, ptr %41, align 8, !tbaa !23
  %43 = load i64, ptr %29, align 8, !tbaa !20
  %44 = load ptr, ptr @comment_line_str, align 8, !tbaa !26
  tail call void @strbuf_add_commented_lines(ptr noundef nonnull %0, ptr noundef %42, i64 noundef %43, ptr noundef %44) #13
  br label %45

45:                                               ; preds = %strbuf_addch.exit, %strbuf_complete_line.exit
  ret void
}